target datalayout = "e-m:e-p270:32:32-p271:32:32-p272:64:64-i64:64-i128:128-f80:128-n8:16:32:64-S128"
target triple = "x86_64-pc-linux-gnu"

%struct.blake2_mac_data_st = type { %struct.blake2s_ctx_st, %struct.blake2s_param_st, [32 x i8] }
%struct.blake2s_ctx_st = type { [8 x i32], [2 x i32], [2 x i32], [64 x i8], i64, i64 }
%struct.blake2s_param_st = type { i8, i8, i8, i8, [4 x i8], [6 x i8], i8, i8, [8 x i8], [8 x i8] }

; Function Attrs: nounwind uwtable
define internal i64 @blake2_mac_size(ptr noundef %0) #0 {
  %2 = alloca ptr, align 8
  %3 = alloca ptr, align 8
  store ptr %0, ptr %2, align 8, !tbaa !3
  call void @llvm.lifetime.start.p0(i64 8, ptr %3) #6
  %4 = load ptr, ptr %2, align 8, !tbaa !3
  store ptr %4, ptr %3, align 8, !tbaa !7
  %5 = load ptr, ptr %3, align 8, !tbaa !7
  %6 = getelementptr inbounds nuw %struct.blake2_mac_data_st, ptr %5, i32 0, i32 1
  %7 = getelementptr inbounds nuw %struct.blake2s_param_st, ptr %6, i32 0, i32 0
  %8 = load i8, ptr %7, align 8, !tbaa !27
  %9 = zext i8 %8 to i64
  call void @llvm.lifetime.end.p0(i64 8, ptr %3) #6
  ret i64 %9
}

; Function Attrs: nounwind uwtable
define internal i32 @blake2_mac_final(ptr noundef %0, ptr noundef %1, ptr noundef %2, i64 noundef %3) #0 {
  %5 = alloca i32, align 4
  %6 = alloca ptr, align 8
  %7 = alloca ptr, align 8
  %8 = alloca ptr, align 8
  %9 = alloca i64, align 8
  %10 = alloca ptr, align 8
  %11 = alloca i32, align 4
  store ptr %0, ptr %6, align 8, !tbaa !3
  store ptr %1, ptr %7, align 8, !tbaa !13
  store ptr %2, ptr %8, align 8, !tbaa !21
  store i64 %3, ptr %9, align 8, !tbaa !11
  call void @llvm.lifetime.start.p0(i64 8, ptr %10) #6
  %12 = load ptr, ptr %6, align 8, !tbaa !3
  store ptr %12, ptr %10, align 8, !tbaa !7
  %13 = call i32 @ossl_prov_is_running()
  %14 = icmp ne i32 %13, 0
  br i1 %14, label %16, label %15

15:                                               ; preds = %4
  store i32 0, ptr %5, align 4
  store i32 1, ptr %11, align 4
  br label %24

16:                                               ; preds = %4
  %17 = load ptr, ptr %10, align 8, !tbaa !7
  %18 = call i64 @blake2_mac_size(ptr noundef %17)
  %19 = load ptr, ptr %8, align 8, !tbaa !21
  store i64 %18, ptr %19, align 8, !tbaa !11
  %20 = load ptr, ptr %7, align 8, !tbaa !13
  %21 = load ptr, ptr %10, align 8, !tbaa !7
  %22 = getelementptr inbounds nuw %struct.blake2_mac_data_st, ptr %21, i32 0, i32 0
  %23 = call i32 @ossl_blake2s_final(ptr noundef %20, ptr noundef %22)
  store i32 %23, ptr %5, align 4
  store i32 1, ptr %11, align 4
  br label %24

24:                                               ; preds = %16, %15
  call void @llvm.lifetime.end.p0(i64 8, ptr %10) #6
  %25 = load i32, ptr %5, align 4
  ret i32 %25
}