; Function Attrs: nounwind uwtable
define internal i32 @blake2_mac_final(ptr noundef %0, ptr noundef %1, ptr noundef writeonly captures(none) %2, i64 %3) #0 {
  %5 = tail call i32 @ossl_prov_is_running() #6
  %.not = icmp eq i32 %5, 0
  br i1 %.not, label %10, label %6

6:                                                ; preds = %4
  %7 = getelementptr i8, ptr %0, i64 128
  %.val = load i8, ptr %7, align 8, !tbaa !13
  %8 = zext i8 %.val to i64
  store i64 %8, ptr %2, align 8, !tbaa !7
  %9 = tail call i32 @ossl_blake2s_final(ptr noundef %1, ptr noundef %0) #6
  br label %10

10:                                               ; preds = %4, %6
  %.0 = phi i32 [ %9, %6 ], [ 0, %4 ]
  ret i32 %.0
}